
file1.o:     file format pe-i386


Disassembly of section .text:

00000000 <_main>:
   0:	8d 4c 24 04          	lea    0x4(%esp),%ecx
   4:	83 e4 f0             	and    $0xfffffff0,%esp
   7:	ff 71 fc             	pushl  -0x4(%ecx)
   a:	55                   	push   %ebp
   b:	89 e5                	mov    %esp,%ebp
   d:	51                   	push   %ecx
   e:	83 ec 14             	sub    $0x14,%esp
  11:	e8 00 00 00 00       	call   16 <_main+0x16>
  16:	c7 44 24 04 00 00 00 	movl   $0x0,0x4(%esp)
  1d:	00 
  1e:	c7 04 24 00 00 00 00 	movl   $0x0,(%esp)
  25:	e8 00 00 00 00       	call   2a <_main+0x2a>
  2a:	c7 04 24 00 00 00 00 	movl   $0x0,(%esp)
  31:	b9 00 00 00 00       	mov    $0x0,%ecx
  36:	e8 00 00 00 00       	call   3b <_main+0x3b>
  3b:	83 ec 04             	sub    $0x4,%esp
  3e:	c7 44 24 04 26 00 00 	movl   $0x26,0x4(%esp)
  45:	00 
  46:	89 04 24             	mov    %eax,(%esp)
  49:	e8 00 00 00 00       	call   4e <_main+0x4e>
  4e:	c7 04 24 04 00 00 00 	movl   $0x4,(%esp)
  55:	89 c1                	mov    %eax,%ecx
  57:	e8 00 00 00 00       	call   5c <_main+0x5c>
  5c:	83 ec 04             	sub    $0x4,%esp
  5f:	c7 44 24 04 30 00 00 	movl   $0x30,0x4(%esp)
  66:	00 
  67:	89 04 24             	mov    %eax,(%esp)
  6a:	e8 00 00 00 00       	call   6f <_main+0x6f>
  6f:	c7 04 24 08 00 00 00 	movl   $0x8,(%esp)
  76:	89 c1                	mov    %eax,%ecx
  78:	e8 00 00 00 00       	call   7d <_main+0x7d>
  7d:	83 ec 04             	sub    $0x4,%esp
  80:	c7 44 24 04 3b 00 00 	movl   $0x3b,0x4(%esp)
  87:	00 
  88:	89 04 24             	mov    %eax,(%esp)
  8b:	e8 00 00 00 00       	call   90 <_main+0x90>
  90:	e8 00 00 00 00       	call   95 <_main+0x95>
  95:	e8 00 00 00 00       	call   9a <_main+0x9a>
  9a:	b8 00 00 00 00       	mov    $0x0,%eax
  9f:	8b 4d fc             	mov    -0x4(%ebp),%ecx
  a2:	c9                   	leave  
  a3:	8d 61 fc             	lea    -0x4(%ecx),%esp
  a6:	c3                   	ret    

000000a7 <___tcf_0>:
  a7:	55                   	push   %ebp
  a8:	89 e5                	mov    %esp,%ebp
  aa:	83 ec 08             	sub    $0x8,%esp
  ad:	b9 00 00 00 00       	mov    $0x0,%ecx
  b2:	e8 00 00 00 00       	call   b7 <___tcf_0+0x10>
  b7:	c9                   	leave  
  b8:	c3                   	ret    

000000b9 <__Z41__static_initialization_and_destruction_0ii>:
  b9:	55                   	push   %ebp
  ba:	89 e5                	mov    %esp,%ebp
  bc:	83 ec 18             	sub    $0x18,%esp
  bf:	83 7d 08 01          	cmpl   $0x1,0x8(%ebp)
  c3:	75 1f                	jne    e4 <__Z41__static_initialization_and_destruction_0ii+0x2b>
  c5:	81 7d 0c ff ff 00 00 	cmpl   $0xffff,0xc(%ebp)
  cc:	75 16                	jne    e4 <__Z41__static_initialization_and_destruction_0ii+0x2b>
  ce:	b9 00 00 00 00       	mov    $0x0,%ecx
  d3:	e8 00 00 00 00       	call   d8 <__Z41__static_initialization_and_destruction_0ii+0x1f>
  d8:	c7 04 24 a7 00 00 00 	movl   $0xa7,(%esp)
  df:	e8 00 00 00 00       	call   e4 <__Z41__static_initialization_and_destruction_0ii+0x2b>
  e4:	c9                   	leave  
  e5:	c3                   	ret    

000000e6 <__GLOBAL__sub_I_tom>:
  e6:	55                   	push   %ebp
  e7:	89 e5                	mov    %esp,%ebp
  e9:	83 ec 18             	sub    $0x18,%esp
  ec:	c7 44 24 04 ff ff 00 	movl   $0xffff,0x4(%esp)
  f3:	00 
  f4:	c7 04 24 01 00 00 00 	movl   $0x1,(%esp)
  fb:	e8 b9 ff ff ff       	call   b9 <__Z41__static_initialization_and_destruction_0ii>
 100:	c9                   	leave  
 101:	c3                   	ret    
 102:	90                   	nop
 103:	90                   	nop
